target datalayout = "e-m:e-p270:32:32-p271:32:32-p272:64:64-i64:64-i128:128-f80:128-n8:16:32:64-S128"
target triple = "x86_64-pc-linux-gnu"

%"class.icu_77::UMutex" = type { [40 x i8], %"struct.std::atomic", ptr }
%"struct.std::atomic" = type { %"struct.std::__atomic_base" }
%"struct.std::__atomic_base" = type { ptr }
%"class.icu_77::Mutex" = type { ptr }

@_ZL13registryMutex = internal global %"class.icu_77::UMutex" zeroinitializer, align 8
@_ZL8registry = internal global ptr null, align 8

; Function Attrs: mustprogress nounwind uwtable
define linkonce_odr void @_ZN6icu_775MutexD2Ev(ptr noundef nonnull align 8 dereferenceable(8) %0) unnamed_addr #0 comdat align 2 personality ptr @__gxx_personality_v0 {
  %2 = alloca ptr, align 8
  store ptr %0, ptr %2, align 8, !tbaa !133
  %3 = load ptr, ptr %2, align 8
  %4 = getelementptr inbounds nuw %"class.icu_77::Mutex", ptr %3, i32 0, i32 0
  %5 = load ptr, ptr %4, align 8, !tbaa !137
  invoke void @umtx_unlock_77(ptr noundef %5)
          to label %6 unwind label %7

6:                                                ; preds = %1
  ret void

7:                                                ; preds = %1
  %8 = landingpad { ptr, i32 }
          catch ptr null
  %9 = extractvalue { ptr, i32 } %8, 0
  call void @__clang_call_terminate(ptr %9) #17
  unreachable
}

; Function Attrs: mustprogress uwtable
define linkonce_odr void @_ZN6icu_775MutexC2EPNS_6UMutexE(ptr noundef nonnull align 8 dereferenceable(8) %0, ptr noundef %1) unnamed_addr #1 comdat align 2 {
  %3 = alloca ptr, align 8
  %4 = alloca ptr, align 8
  store ptr %0, ptr %3, align 8, !tbaa !133
  store ptr %1, ptr %4, align 8, !tbaa !135
  %5 = load ptr, ptr %3, align 8
  %6 = getelementptr inbounds nuw %"class.icu_77::Mutex", ptr %5, i32 0, i32 0
  %7 = load ptr, ptr %4, align 8, !tbaa !135
  store ptr %7, ptr %6, align 8, !tbaa !137
  %8 = getelementptr inbounds nuw %"class.icu_77::Mutex", ptr %5, i32 0, i32 0
  %9 = load ptr, ptr %8, align 8, !tbaa !137
  call void @umtx_lock_77(ptr noundef %9)
  ret void
}

; Function Attrs: mustprogress uwtable
define noundef i32 @_ZN6icu_7714Transliterator17countAvailableIDsEv() #1 align 2 personality ptr @__gxx_personality_v0 {
  %1 = alloca i32, align 4
  %2 = alloca %"class.icu_77::Mutex", align 8
  %3 = alloca i32, align 4
  %4 = alloca ptr, align 8
  %5 = alloca i32, align 4
  call void @llvm.lifetime.start.p0(i64 4, ptr %1) #15
  store i32 0, ptr %1, align 4, !tbaa !14
  call void @llvm.lifetime.start.p0(i64 8, ptr %2) #15
  call void @_ZN6icu_775MutexC2EPNS_6UMutexE(ptr noundef nonnull align 8 dereferenceable(8) %2, ptr noundef @_ZL13registryMutex)
  call void @llvm.lifetime.start.p0(i64 4, ptr %3) #15
  store i32 0, ptr %3, align 4, !tbaa !15
  %6 = load ptr, ptr @_ZL8registry, align 8, !tbaa !86
  %7 = icmp ne ptr %6, null
  br i1 %7, label %12, label %8

8:                                                ; preds = %0
  %9 = invoke noundef signext i8 @_ZN6icu_7714Transliterator18initializeRegistryER10UErrorCode(ptr noundef nonnull align 4 dereferenceable(4) %3)
          to label %10 unwind label %16

10:                                               ; preds = %8
  %11 = icmp ne i8 %9, 0
  br i1 %11, label %12, label %20

12:                                               ; preds = %10, %0
  %13 = load ptr, ptr @_ZL8registry, align 8, !tbaa !86
  %14 = invoke noundef i32 @_ZNK6icu_7722TransliteratorRegistry17countAvailableIDsEv(ptr noundef nonnull align 8 dereferenceable(312) %13)
          to label %15 unwind label %16

15:                                               ; preds = %12
  store i32 %14, ptr %1, align 4, !tbaa !14
  br label %20

16:                                               ; preds = %12, %8
  %17 = landingpad { ptr, i32 }
          cleanup
  %18 = extractvalue { ptr, i32 } %17, 0
  store ptr %18, ptr %4, align 8
  %19 = extractvalue { ptr, i32 } %17, 1
  store i32 %19, ptr %5, align 4
  call void @llvm.lifetime.end.p0(i64 4, ptr %3) #15
  call void @_ZN6icu_775MutexD2Ev(ptr noundef nonnull align 8 dereferenceable(8) %2) #15
  call void @llvm.lifetime.end.p0(i64 8, ptr %2) #15
  call void @llvm.lifetime.end.p0(i64 4, ptr %1) #15
  br label %22

20:                                               ; preds = %15, %10
  %21 = load i32, ptr %1, align 4, !tbaa !14
  call void @llvm.lifetime.end.p0(i64 4, ptr %3) #15
  call void @_ZN6icu_775MutexD2Ev(ptr noundef nonnull align 8 dereferenceable(8) %2) #15
  call void @llvm.lifetime.end.p0(i64 8, ptr %2) #15
  call void @llvm.lifetime.end.p0(i64 4, ptr %1) #15
  ret i32 %21

22:                                               ; preds = %16
  %23 = load ptr, ptr %4, align 8
  %24 = load i32, ptr %5, align 4
  %25 = insertvalue { ptr, i32 } poison, ptr %23, 0
  %26 = insertvalue { ptr, i32 } %25, i32 %24, 1
  resume { ptr, i32 } %26
}